; Function Attrs: mustprogress uwtable
define noundef i32 @_ZNK6icu_7513DangiCalendar14getRelatedYearER10UErrorCode(ptr noundef nonnull align 8 dereferenceable(632) %this, ptr noundef nonnull align 4 dereferenceable(4) %status) unnamed_addr #0 align 2 {
entry:
  %call = tail call noundef i32 @_ZNK6icu_758Calendar3getE19UCalendarDateFieldsR10UErrorCode(ptr noundef nonnull align 8 dereferenceable(618) %this, i32 noundef 19, ptr noundef nonnull align 4 dereferenceable(4) %status)
  %0 = load i32, ptr %status, align 4
  %add = add i32 %call, -2333
  %cmp.i.inv = icmp sgt i32 %0, 0
  %retval.0 = select i1 %cmp.i.inv, i32 0, i32 %add
  ret i32 %retval.0
}